	.file	"car.c"
	.text
	.globl	compareModel
	.type	compareModel, @function
compareModel:
.LFB6:
	.cfi_startproc
	endbr64
	pushq	%rbp
	.cfi_def_cfa_offset 16
	.cfi_offset 6, -16
	movq	%rsp, %rbp
	.cfi_def_cfa_register 6
	subq	$32, %rsp
	movq	%rdi, -24(%rbp)
	movq	%rsi, -32(%rbp)
	movq	-24(%rbp), %rax
	movq	%rax, -16(%rbp)
	movq	-32(%rbp), %rax
	movq	%rax, -8(%rbp)
	movq	-8(%rbp), %rdx
	movq	-16(%rbp), %rax
	movq	%rdx, %rsi
	movq	%rax, %rdi
	call	strcmp@PLT
	leave
	.cfi_def_cfa 7, 8
	ret
	.cfi_endproc
.LFE6:
	.size	compareModel, .-compareModel
	.globl	compareModelDesc
	.type	compareModelDesc, @function
compareModelDesc:
.LFB7:
	.cfi_startproc
	endbr64
	pushq	%rbp
	.cfi_def_cfa_offset 16
	.cfi_offset 6, -16
	movq	%rsp, %rbp
	.cfi_def_cfa_register 6
	subq	$32, %rsp
	movq	%rdi, -24(%rbp)
	movq	%rsi, -32(%rbp)
	movq	-24(%rbp), %rax
	movq	%rax, -16(%rbp)
	movq	-32(%rbp), %rax
	movq	%rax, -8(%rbp)
	movq	-16(%rbp), %rdx
	movq	-8(%rbp), %rax
	movq	%rdx, %rsi
	movq	%rax, %rdi
	call	strcmp@PLT
	leave
	.cfi_def_cfa 7, 8
	ret
	.cfi_endproc
.LFE7:
	.size	compareModelDesc, .-compareModelDesc
	.globl	compareMaxSpeed
	.type	compareMaxSpeed, @function
compareMaxSpeed:
.LFB8:
	.cfi_startproc
	endbr64
	pushq	%rbp
	.cfi_def_cfa_offset 16
	.cfi_offset 6, -16
	movq	%rsp, %rbp
	.cfi_def_cfa_register 6
	movq	%rdi, -24(%rbp)
	movq	%rsi, -32(%rbp)
	movq	-24(%rbp), %rax
	movq	%rax, -16(%rbp)
	movq	-32(%rbp), %rax
	movq	%rax, -8(%rbp)
	movq	-16(%rbp), %rax
	movzbl	21(%rax), %eax
	movzbl	%al, %edx
	movq	-8(%rbp), %rax
	movzbl	21(%rax), %eax
	movzbl	%al, %ecx
	movl	%edx, %eax
	subl	%ecx, %eax
	popq	%rbp
	.cfi_def_cfa 7, 8
	ret
	.cfi_endproc
.LFE8:
	.size	compareMaxSpeed, .-compareMaxSpeed
	.globl	compareMaxSpeedDesc
	.type	compareMaxSpeedDesc, @function
compareMaxSpeedDesc:
.LFB9:
	.cfi_startproc
	endbr64
	pushq	%rbp
	.cfi_def_cfa_offset 16
	.cfi_offset 6, -16
	movq	%rsp, %rbp
	.cfi_def_cfa_register 6
	movq	%rdi, -24(%rbp)
	movq	%rsi, -32(%rbp)
	movq	-24(%rbp), %rax
	movq	%rax, -16(%rbp)
	movq	-32(%rbp), %rax
	movq	%rax, -8(%rbp)
	movq	-8(%rbp), %rax
	movzbl	21(%rax), %eax
	movzbl	%al, %edx
	movq	-16(%rbp), %rax
	movzbl	21(%rax), %eax
	movzbl	%al, %ecx
	movl	%edx, %eax
	subl	%ecx, %eax
	popq	%rbp
	.cfi_def_cfa 7, 8
	ret
	.cfi_endproc
.LFE9:
	.size	compareMaxSpeedDesc, .-compareMaxSpeedDesc
	.globl	comparePriceDesc
	.type	comparePriceDesc, @function
comparePriceDesc:
.LFB10:
	.cfi_startproc
	endbr64
	pushq	%rbp
	.cfi_def_cfa_offset 16
	.cfi_offset 6, -16
	movq	%rsp, %rbp
	.cfi_def_cfa_register 6
	movq	%rdi, -24(%rbp)
	movq	%rsi, -32(%rbp)
	movq	-24(%rbp), %rax
	movq	%rax, -16(%rbp)
	movq	-32(%rbp), %rax
	movq	%rax, -8(%rbp)
	movq	-16(%rbp), %rax
	movsd	24(%rax), %xmm0
	movq	-8(%rbp), %rax
	movsd	24(%rax), %xmm1
	subsd	%xmm1, %xmm0
	movq	.LC0(%rip), %xmm1
	andpd	%xmm0, %xmm1
	movsd	.LC1(%rip), %xmm0
	comisd	%xmm1, %xmm0
	jbe	.L17
	movl	$0, %eax
	jmp	.L12
.L17:
	movq	-16(%rbp), %rax
	movsd	24(%rax), %xmm0
	movq	-8(%rbp), %rax
	movsd	24(%rax), %xmm1
	comisd	%xmm1, %xmm0
	jbe	.L18
	movl	$-1, %eax
	jmp	.L12
.L18:
	movl	$1, %eax
.L12:
	popq	%rbp
	.cfi_def_cfa 7, 8
	ret
	.cfi_endproc
.LFE10:
	.size	comparePriceDesc, .-comparePriceDesc
	.globl	comparePrice
	.type	comparePrice, @function
comparePrice:
.LFB11:
	.cfi_startproc
	endbr64
	pushq	%rbp
	.cfi_def_cfa_offset 16
	.cfi_offset 6, -16
	movq	%rsp, %rbp
	.cfi_def_cfa_register 6
	movq	%rdi, -24(%rbp)
	movq	%rsi, -32(%rbp)
	movq	-24(%rbp), %rax
	movq	%rax, -16(%rbp)
	movq	-32(%rbp), %rax
	movq	%rax, -8(%rbp)
	movq	-16(%rbp), %rax
	movsd	24(%rax), %xmm0
	movq	-8(%rbp), %rax
	movsd	24(%rax), %xmm1
	subsd	%xmm1, %xmm0
	movq	.LC0(%rip), %xmm1
	andpd	%xmm0, %xmm1
	movsd	.LC1(%rip), %xmm0
	comisd	%xmm1, %xmm0
	jbe	.L27
	movl	$0, %eax
	jmp	.L22
.L27:
	movq	-16(%rbp), %rax
	movsd	24(%rax), %xmm1
	movq	-8(%rbp), %rax
	movsd	24(%rax), %xmm0
	comisd	%xmm1, %xmm0
	jbe	.L28
	movl	$-1, %eax
	jmp	.L22
.L28:
	movl	$1, %eax
.L22:
	popq	%rbp
	.cfi_def_cfa 7, 8
	ret
	.cfi_endproc
.LFE11:
	.size	comparePrice, .-comparePrice
	.globl	randomName
	.type	randomName, @function
randomName:
.LFB12:
	.cfi_startproc
	endbr64
	pushq	%rbp
	.cfi_def_cfa_offset 16
	.cfi_offset 6, -16
	movq	%rsp, %rbp
	.cfi_def_cfa_register 6
	subq	$32, %rsp
	movq	%rdi, -24(%rbp)
	movl	$0, -12(%rbp)
	movl	$10, %esi
	movl	$4, %edi
	call	randint
	movl	%eax, -4(%rbp)
	movl	$90, %esi
	movl	$65, %edi
	call	randint
	movl	%eax, %ecx
	movl	-12(%rbp), %eax
	leal	1(%rax), %edx
	movl	%edx, -12(%rbp)
	movl	%eax, %edx
	movq	-24(%rbp), %rax
	addq	%rdx, %rax
	movl	%ecx, %edx
	movb	%dl, (%rax)
	movl	$0, -8(%rbp)
	jmp	.L30
.L31:
	movl	$122, %esi
	movl	$97, %edi
	call	randint
	movl	%eax, %ecx
	movl	-12(%rbp), %eax
	leal	1(%rax), %edx
	movl	%edx, -12(%rbp)
	movl	%eax, %edx
	movq	-24(%rbp), %rax
	addq	%rdx, %rax
	movl	%ecx, %edx
	movb	%dl, (%rax)
	addl	$1, -8(%rbp)
.L30:
	movl	-8(%rbp), %eax
	cmpl	-4(%rbp), %eax
	jl	.L31
	movl	-12(%rbp), %edx
	movq	-24(%rbp), %rax
	addq	%rdx, %rax
	movb	$0, (%rax)
	movq	-24(%rbp), %rax
	leave
	.cfi_def_cfa 7, 8
	ret
	.cfi_endproc
.LFE12:
	.size	randomName, .-randomName
	.section	.rodata
.LC2:
	.string	"Model: %20s, "
.LC3:
	.string	"Max speed: %4u, "
.LC4:
	.string	"Price: %4.2lf\n"
	.text
	.globl	print
	.type	print, @function
print:
.LFB13:
	.cfi_startproc
	endbr64
	pushq	%rbp
	.cfi_def_cfa_offset 16
	.cfi_offset 6, -16
	movq	%rsp, %rbp
	.cfi_def_cfa_register 6
	subq	$32, %rsp
	movq	%rdi, -24(%rbp)
	movl	$0, -4(%rbp)
	jmp	.L34
.L35:
	movl	-4(%rbp), %eax
	cltq
	salq	$5, %rax
	movq	%rax, %rdx
	movq	-24(%rbp), %rax
	addq	%rdx, %rax
	movq	%rax, %rsi
	leaq	.LC2(%rip), %rax
	movq	%rax, %rdi
	movl	$0, %eax
	call	printf@PLT
	movl	-4(%rbp), %eax
	cltq
	salq	$5, %rax
	movq	%rax, %rdx
	movq	-24(%rbp), %rax
	addq	%rdx, %rax
	movzbl	21(%rax), %eax
	movzbl	%al, %eax
	movl	%eax, %esi
	leaq	.LC3(%rip), %rax
	movq	%rax, %rdi
	movl	$0, %eax
	call	printf@PLT
	movl	-4(%rbp), %eax
	cltq
	salq	$5, %rax
	movq	%rax, %rdx
	movq	-24(%rbp), %rax
	addq	%rdx, %rax
	movq	24(%rax), %rax
	movq	%rax, %xmm0
	leaq	.LC4(%rip), %rax
	movq	%rax, %rdi
	movl	$1, %eax
	call	printf@PLT
	addl	$1, -4(%rbp)
.L34:
	cmpl	$9, -4(%rbp)
	jle	.L35
	nop
	nop
	leave
	.cfi_def_cfa 7, 8
	ret
	.cfi_endproc
.LFE13:
	.size	print, .-print
	.globl	randint
	.type	randint, @function
randint:
.LFB14:
	.cfi_startproc
	endbr64
	pushq	%rbp
	.cfi_def_cfa_offset 16
	.cfi_offset 6, -16
	movq	%rsp, %rbp
	.cfi_def_cfa_register 6
	subq	$16, %rsp
	movl	%edi, -4(%rbp)
	movl	%esi, -8(%rbp)
	call	rand@PLT
	movl	-8(%rbp), %edx
	subl	-4(%rbp), %edx
	leal	1(%rdx), %ecx
	cltd
	idivl	%ecx
	movl	-4(%rbp), %eax
	addl	%edx, %eax
	leave
	.cfi_def_cfa 7, 8
	ret
	.cfi_endproc
.LFE14:
	.size	randint, .-randint
	.globl	randReal
	.type	randReal, @function
randReal:
.LFB15:
	.cfi_startproc
	endbr64
	pushq	%rbp
	.cfi_def_cfa_offset 16
	.cfi_offset 6, -16
	movq	%rsp, %rbp
	.cfi_def_cfa_register 6
	subq	$16, %rsp
	movsd	%xmm0, -8(%rbp)
	movsd	%xmm1, -16(%rbp)
	call	rand@PLT
	pxor	%xmm0, %xmm0
	cvtsi2sdl	%eax, %xmm0
	movsd	.LC5(%rip), %xmm2
	movapd	%xmm0, %xmm1
	divsd	%xmm2, %xmm1
	movsd	-16(%rbp), %xmm0
	subsd	-8(%rbp), %xmm0
	mulsd	%xmm1, %xmm0
	addsd	-8(%rbp), %xmm0
	movq	%xmm0, %rax
	movq	%rax, %xmm0
	leave
	.cfi_def_cfa 7, 8
	ret
	.cfi_endproc
.LFE15:
	.size	randReal, .-randReal
	.section	.rodata
	.align 16
.LC0:
	.long	-1
	.long	2147483647
	.long	0
	.long	0
	.align 8
.LC1:
	.long	-755914244
	.long	1062232653
	.align 8
.LC5:
	.long	-4194304
	.long	1105199103
	.ident	"GCC: (Ubuntu 11.2.0-19ubuntu1) 11.2.0"
	.section	.note.GNU-stack,"",@progbits
	.section	.note.gnu.property,"a"
	.align 8
	.long	1f - 0f
	.long	4f - 1f
	.long	5
0:
	.string	"GNU"
1:
	.align 8
	.long	0xc0000002
	.long	3f - 2f
2:
	.long	0x3
3:
	.align 8
4:
